; Function Attrs: mustprogress nofree norecurse nosync nounwind willreturn memory(argmem: readwrite) uwtable
define hidden void @_ZN13StubAssembler14set_frame_sizeEi(ptr nocapture noundef nonnull align 8 dereferenceable(72) %0, i32 noundef %1) local_unnamed_addr #2 align 2 {
  %3 = getelementptr inbounds i8, ptr %0, i64 60
  %4 = load i32, ptr %3, align 4
  %5 = icmp eq i32 %4, -1
  br i1 %5, label %6, label %7

6:                                                ; preds = %2
  store i32 %1, ptr %3, align 4
  br label %7

7:                                                ; preds = %6, %2
  ret void
}